target datalayout = "e-m:e-p270:32:32-p271:32:32-p272:64:64-i64:64-i128:128-f80:128-n8:16:32:64-S128"
target triple = "x86_64-pc-linux-gnu"

%struct.AVRational = type { i32, i32 }
%struct.AVFilterContext = type { ptr, ptr, ptr, ptr, ptr, i32, ptr, ptr, i32, ptr, ptr, i32, i32, ptr, ptr, ptr, ptr, i32, ptr, i32, i32 }
%struct.MovieContext = type { ptr, i64, double, ptr, ptr, ptr, i32, i32, i64, i64, i32, ptr, ptr, i32, i32, ptr, ptr, ptr }
%struct.AVStream = type { ptr, i32, i32, ptr, ptr, %struct.AVRational, i64, i64, i64, i32, i32, %struct.AVRational, ptr, %struct.AVRational, %struct.AVPacket, i32, %struct.AVRational, i32 }
%struct.AVPacket = type { ptr, i64, i64, ptr, i32, i32, i32, ptr, i32, i64, i64, ptr, ptr, %struct.AVRational }
%struct.MovieStream = type { ptr, ptr, ptr, i64, i64, ptr, i32 }
%struct.AVCodecParameters = type { i32, i32, i32, ptr, i32, ptr, i32, i32, i64, i32, i32, i32, i32, i32, i32, %struct.AVRational, %struct.AVRational, i32, i32, i32, i32, i32, i32, i32, %struct.AVChannelLayout, i32, i32, i32, i32, i32, i32 }
%struct.AVChannelLayout = type { i32, i32, %union.anon.2, ptr }
%union.anon.2 = type { i64 }
%struct.AVFilterFormatsConfig = type { ptr, ptr, ptr, ptr, ptr }
%struct.AVFilterLink = type { ptr, ptr, ptr, ptr, i32, i32, i32, i32, %struct.AVRational, i32, i32, i32, %struct.AVChannelLayout, %struct.AVRational, ptr, i32, %struct.AVFilterFormatsConfig, %struct.AVFilterFormatsConfig }
%struct.FilterLink = type { %struct.AVFilterLink, ptr, i64, i64, i32, i32, i64, i64, i64, i64, %struct.AVRational, ptr }

; Function Attrs: inlinehint nounwind uwtable
define internal ptr @ff_filter_link(ptr noundef %0) #9 {
  %2 = alloca ptr, align 8
  store ptr %0, ptr %2, align 8, !tbaa !120
  %3 = load ptr, ptr %2, align 8, !tbaa !120
  ret ptr %3
}

; Function Attrs: nounwind uwtable
define internal i32 @movie_config_output_props(ptr noundef %0) #1 {
  %2 = alloca ptr, align 8
  %3 = alloca ptr, align 8
  %4 = alloca ptr, align 8
  %5 = alloca ptr, align 8
  %6 = alloca i32, align 4
  %7 = alloca ptr, align 8
  %8 = alloca ptr, align 8
  store ptr %0, ptr %2, align 8, !tbaa !120
  call void @llvm.lifetime.start.p0(i64 8, ptr %3) #11
  %9 = load ptr, ptr %2, align 8, !tbaa !120
  %10 = call ptr @ff_filter_link(ptr noundef %9)
  store ptr %10, ptr %3, align 8, !tbaa !132
  call void @llvm.lifetime.start.p0(i64 8, ptr %4) #11
  %11 = load ptr, ptr %2, align 8, !tbaa !120
  %12 = getelementptr inbounds nuw %struct.AVFilterLink, ptr %11, i32 0, i32 0
  %13 = load ptr, ptr %12, align 8, !tbaa !134
  store ptr %13, ptr %4, align 8, !tbaa !4
  call void @llvm.lifetime.start.p0(i64 8, ptr %5) #11
  %14 = load ptr, ptr %4, align 8, !tbaa !4
  %15 = getelementptr inbounds nuw %struct.AVFilterContext, ptr %14, i32 0, i32 9
  %16 = load ptr, ptr %15, align 8, !tbaa !9
  store ptr %16, ptr %5, align 8, !tbaa !22
  call void @llvm.lifetime.start.p0(i64 4, ptr %6) #11
  %17 = load ptr, ptr %2, align 8, !tbaa !120
  %18 = getelementptr inbounds nuw %struct.AVFilterLink, ptr %17, i32 0, i32 1
  %19 = load ptr, ptr %18, align 8, !tbaa !140
  %20 = load ptr, ptr %2, align 8, !tbaa !120
  %21 = getelementptr inbounds nuw %struct.AVFilterLink, ptr %20, i32 0, i32 0
  %22 = load ptr, ptr %21, align 8, !tbaa !134
  %23 = getelementptr inbounds nuw %struct.AVFilterContext, ptr %22, i32 0, i32 6
  %24 = load ptr, ptr %23, align 8, !tbaa !141
  %25 = ptrtoint ptr %19 to i64
  %26 = ptrtoint ptr %24 to i64
  %27 = sub i64 %25, %26
  %28 = sdiv exact i64 %27, 48
  %29 = trunc i64 %28 to i32
  store i32 %29, ptr %6, align 4, !tbaa !26
  call void @llvm.lifetime.start.p0(i64 8, ptr %7) #11
  %30 = load ptr, ptr %5, align 8, !tbaa !22
  %31 = getelementptr inbounds nuw %struct.MovieContext, ptr %30, i32 0, i32 15
  %32 = load ptr, ptr %31, align 8, !tbaa !73
  %33 = load i32, ptr %6, align 4, !tbaa !26
  %34 = zext i32 %33 to i64
  %35 = getelementptr inbounds nuw %struct.MovieStream, ptr %32, i64 %34
  store ptr %35, ptr %7, align 8, !tbaa !105
  call void @llvm.lifetime.start.p0(i64 8, ptr %8) #11
  %36 = load ptr, ptr %7, align 8, !tbaa !105
  %37 = getelementptr inbounds nuw %struct.MovieStream, ptr %36, i32 0, i32 1
  %38 = load ptr, ptr %37, align 8, !tbaa !74
  %39 = getelementptr inbounds nuw %struct.AVStream, ptr %38, i32 0, i32 3
  %40 = load ptr, ptr %39, align 8, !tbaa !89
  store ptr %40, ptr %8, align 8, !tbaa !106
  %41 = load ptr, ptr %2, align 8, !tbaa !120
  %42 = getelementptr inbounds nuw %struct.AVFilterLink, ptr %41, i32 0, i32 13
  %43 = load ptr, ptr %7, align 8, !tbaa !105
  %44 = getelementptr inbounds nuw %struct.MovieStream, ptr %43, i32 0, i32 1
  %45 = load ptr, ptr %44, align 8, !tbaa !74
  %46 = getelementptr inbounds nuw %struct.AVStream, ptr %45, i32 0, i32 5
  call void @llvm.memcpy.p0.p0.i64(ptr align 8 %42, ptr align 8 %46, i64 8, i1 false), !tbaa.struct !142
  %47 = load ptr, ptr %8, align 8, !tbaa !106
  %48 = getelementptr inbounds nuw %struct.AVCodecParameters, ptr %47, i32 0, i32 0
  %49 = load i32, ptr %48, align 8, !tbaa !90
  switch i32 %49, label %67 [
    i32 0, label %50
    i32 1, label %67
  ]

50:                                               ; preds = %1
  %51 = load ptr, ptr %8, align 8, !tbaa !106
  %52 = getelementptr inbounds nuw %struct.AVCodecParameters, ptr %51, i32 0, i32 13
  %53 = load i32, ptr %52, align 8, !tbaa !143
  %54 = load ptr, ptr %2, align 8, !tbaa !120
  %55 = getelementptr inbounds nuw %struct.AVFilterLink, ptr %54, i32 0, i32 6
  store i32 %53, ptr %55, align 8, !tbaa !144
  %56 = load ptr, ptr %8, align 8, !tbaa !106
  %57 = getelementptr inbounds nuw %struct.AVCodecParameters, ptr %56, i32 0, i32 14
  %58 = load i32, ptr %57, align 4, !tbaa !145
  %59 = load ptr, ptr %2, align 8, !tbaa !120
  %60 = getelementptr inbounds nuw %struct.AVFilterLink, ptr %59, i32 0, i32 7
  store i32 %58, ptr %60, align 4, !tbaa !146
  %61 = load ptr, ptr %3, align 8, !tbaa !132
  %62 = getelementptr inbounds nuw %struct.FilterLink, ptr %61, i32 0, i32 10
  %63 = load ptr, ptr %7, align 8, !tbaa !105
  %64 = getelementptr inbounds nuw %struct.MovieStream, ptr %63, i32 0, i32 1
  %65 = load ptr, ptr %64, align 8, !tbaa !74
  %66 = getelementptr inbounds nuw %struct.AVStream, ptr %65, i32 0, i32 16
  call void @llvm.memcpy.p0.p0.i64(ptr align 8 %62, ptr align 4 %66, i64 8, i1 false), !tbaa.struct !142
  br label %67

67:                                               ; preds = %1, %1, %50
  %68 = load ptr, ptr %2, align 8, !tbaa !120
  %69 = load ptr, ptr %7, align 8, !tbaa !105
  %70 = getelementptr inbounds nuw %struct.MovieStream, ptr %69, i32 0, i32 0
  store ptr %68, ptr %70, align 8, !tbaa !147
  call void @llvm.lifetime.end.p0(i64 8, ptr %8) #11
  call void @llvm.lifetime.end.p0(i64 8, ptr %7) #11
  call void @llvm.lifetime.end.p0(i64 4, ptr %6) #11
  call void @llvm.lifetime.end.p0(i64 8, ptr %5) #11
  call void @llvm.lifetime.end.p0(i64 8, ptr %4) #11
  call void @llvm.lifetime.end.p0(i64 8, ptr %3) #11
  ret i32 0
}