; Function Attrs: mustprogress nofree norecurse nosync nounwind willreturn memory(readwrite, inaccessiblemem: none) uwtable
define internal noundef i32 @movie_config_output_props(ptr noundef initializes((96, 104)) %0) #9 {
  %2 = load ptr, ptr %0, align 8, !tbaa !121
  %3 = getelementptr inbounds nuw i8, ptr %2, i64 72
  %4 = load ptr, ptr %3, align 8, !tbaa !4
  %5 = getelementptr inbounds nuw i8, ptr %0, i64 8
  %6 = load ptr, ptr %5, align 8, !tbaa !128
  %7 = getelementptr inbounds nuw i8, ptr %2, i64 48
  %8 = load ptr, ptr %7, align 8, !tbaa !129
  %9 = ptrtoint ptr %6 to i64
  %10 = ptrtoint ptr %8 to i64
  %11 = sub i64 %9, %10
  %12 = sdiv exact i64 %11, 48
  %13 = getelementptr inbounds nuw i8, ptr %4, i64 104
  %14 = load ptr, ptr %13, align 8, !tbaa !66
  %15 = and i64 %12, 4294967295
  %16 = getelementptr inbounds nuw %struct.MovieStream, ptr %14, i64 %15
  %17 = getelementptr inbounds nuw i8, ptr %16, i64 8
  %18 = load ptr, ptr %17, align 8, !tbaa !74
  %19 = getelementptr inbounds nuw i8, ptr %18, i64 16
  %20 = load ptr, ptr %19, align 8, !tbaa !70
  %21 = getelementptr inbounds nuw i8, ptr %0, i64 96
  %22 = getelementptr inbounds nuw i8, ptr %18, i64 32
  %23 = load i64, ptr %22, align 8
  store i64 %23, ptr %21, align 8
  %24 = load i32, ptr %20, align 8, !tbaa !71
  %cond = icmp eq i32 %24, 0
  br i1 %cond, label %25, label %36

25:                                               ; preds = %1
  %26 = getelementptr inbounds nuw i8, ptr %20, i64 72
  %27 = load i32, ptr %26, align 8, !tbaa !130
  %28 = getelementptr inbounds nuw i8, ptr %0, i64 40
  store i32 %27, ptr %28, align 8, !tbaa !131
  %29 = getelementptr inbounds nuw i8, ptr %20, i64 76
  %30 = load i32, ptr %29, align 4, !tbaa !132
  %31 = getelementptr inbounds nuw i8, ptr %0, i64 44
  store i32 %30, ptr %31, align 4, !tbaa !133
  %32 = getelementptr inbounds nuw i8, ptr %0, i64 264
  %33 = load ptr, ptr %17, align 8, !tbaa !74
  %34 = getelementptr inbounds nuw i8, ptr %33, i64 204
  %35 = load i64, ptr %34, align 4
  store i64 %35, ptr %32, align 8
  br label %36

36:                                               ; preds = %1, %25
  store ptr %0, ptr %16, align 8, !tbaa !134
  ret i32 0
}